Certificate:
    Data:
        Version: 3 (0x2)
        Serial Number: 638431 (0x9bddf)
        Signature Algorithm: sha256WithRSAEncryption
        Issuer: CN=web-platform-tests
        Validity
            Not Before: Dec 12 00:53:57 2023 GMT
            Not After : Dec 11 00:53:57 2024 GMT
        Subject: CN=web-platform.test
        Subject Public Key Info:
            Public Key Algorithm: rsaEncryption
                RSA Public-Key: (2048 bit)
                Modulus:
                    00:b4:d2:4b:1e:73:00:ff:47:3c:76:2d:41:4f:dd:
                    35:ea:b1:d8:11:9d:d8:dd:2d:3f:57:ca:58:ea:6c:
                    6f:cd:d7:bc:7a:00:a3:2a:50:70:10:91:8b:70:ea:
                    e4:55:47:46:5f:de:45:c1:a8:68:d3:b8:2d:73:d6:
                    02:48:41:8f:9a:10:ba:55:9b:3d:0f:84:33:84:04:
                    6d:a8:99:91:09:cf:9e:2a:f9:8d:05:ba:9b:75:c2:
                    6b:19:36:72:76:ef:b2:b2:2d:8e:8b:75:4f:ec:cd:
                    b4:2b:f7:a7:28:e0:3e:a8:30:9d:4c:d2:78:eb:07:
                    7f:59:cc:10:ba:71:6c:6f:7e:13:3f:65:71:d8:91:
                    92:be:1a:3b:c7:95:78:a3:6d:3d:25:3b:d4:26:4c:
                    64:10:72:ef:95:23:24:81:f1:00:59:b1:c8:60:85:
                    80:87:e7:4f:4b:fd:91:0c:2f:ca:bb:b8:3a:b9:8b:
                    fc:b0:ac:de:aa:bf:b8:db:49:13:c3:68:4e:0b:f5:
                    c8:25:c5:ca:51:d9:fb:7b:02:c2:b1:81:f4:39:c2:
                    84:2c:bd:82:03:0c:92:5a:a3:8f:21:1c:9c:59:fb:
                    60:b9:60:84:b0:db:6c:4b:da:bc:c3:e3:8d:38:12:
                    8f:28:25:4e:56:ac:b8:39:cd:f2:ba:28:38:30:0a:
                    23:83
                Exponent: 65537 (0x10001)
        X509v3 extensions:
            X509v3 Basic Constraints: 
                CA:FALSE
            X509v3 Subject Key Identifier: 
                7C:75:A6:2A:93:1E:71:E7:D2:4B:27:E4:1D:FA:3D:FC:63:E2:D3:83
            X509v3 Authority Key Identifier: 
                keyid:D3:ED:E8:4B:E7:54:05:60:9B:F7:E7:51:AD:FD:1F:A3:9C:39:1E:EA

            X509v3 Key Usage: 
                Digital Signature, Non Repudiation, Key Encipherment
            X509v3 Extended Key Usage: 
                TLS Web Server Authentication
            X509v3 Subject Alternative Name: 
                DNS:web-platform.test, DNS:not-web-platform.test, DNS:www.web-platform.test, DNS:www1.web-platform.test, DNS:www2.web-platform.test, DNS:www.www.web-platform.test, DNS:www.not-web-platform.test, DNS:www.www1.web-platform.test, DNS:www1.not-web-platform.test, DNS:www2.www.web-platform.test, DNS:www1.www.web-platform.test, DNS:www.www2.web-platform.test, DNS:www2.not-web-platform.test, DNS:www1.www1.web-platform.test, DNS:www2.www1.web-platform.test, DNS:www2.www2.web-platform.test, DNS:www1.www2.web-platform.test, DNS:www.www.not-web-platform.test, DNS:www1.www.not-web-platform.test, DNS:www.www1.not-web-platform.test, DNS:xn--lve-6lad.web-platform.test, DNS:www2.www.not-web-platform.test, DNS:www.www2.not-web-platform.test, DNS:www2.www1.not-web-platform.test, DNS:www1.www2.not-web-platform.test, DNS:www1.www1.not-web-platform.test, DNS:www2.www2.not-web-platform.test, DNS:xn--lve-6lad.not-web-platform.test, DNS:xn--lve-6lad.www.web-platform.test, DNS:www.xn--lve-6lad.web-platform.test, DNS:xn--lve-6lad.www1.web-platform.test, DNS:xn--lve-6lad.www2.web-platform.test, DNS:www2.xn--lve-6lad.web-platform.test, DNS:www1.xn--lve-6lad.web-platform.test, DNS:xn--lve-6lad.www.not-web-platform.test, DNS:www.xn--lve-6lad.not-web-platform.test, DNS:www2.xn--lve-6lad.not-web-platform.test, DNS:www1.xn--lve-6lad.not-web-platform.test, DNS:xn--lve-6lad.www1.not-web-platform.test, DNS:xn--lve-6lad.www2.not-web-platform.test, DNS:xn--n8j6ds53lwwkrqhv28a.web-platform.test, DNS:xn--lve-6lad.xn--lve-6lad.web-platform.test, DNS:xn--n8j6ds53lwwkrqhv28a.not-web-platform.test, DNS:www.xn--n8j6ds53lwwkrqhv28a.web-platform.test, DNS:xn--n8j6ds53lwwkrqhv28a.www.web-platform.test, DNS:xn--n8j6ds53lwwkrqhv28a.www1.web-platform.test, DNS:www2.xn--n8j6ds53lwwkrqhv28a.web-platform.test, DNS:xn--n8j6ds53lwwkrqhv28a.www2.web-platform.test, DNS:www1.xn--n8j6ds53lwwkrqhv28a.web-platform.test, DNS:xn--lve-6lad.xn--lve-6lad.not-web-platform.test, DNS:www.xn--n8j6ds53lwwkrqhv28a.not-web-platform.test, DNS:xn--n8j6ds53lwwkrqhv28a.www.not-web-platform.test, DNS:xn--n8j6ds53lwwkrqhv28a.www2.not-web-platform.test, DNS:xn--n8j6ds53lwwkrqhv28a.www1.not-web-platform.test, DNS:www2.xn--n8j6ds53lwwkrqhv28a.not-web-platform.test, DNS:www1.xn--n8j6ds53lwwkrqhv28a.not-web-platform.test, DNS:xn--lve-6lad.xn--n8j6ds53lwwkrqhv28a.web-platform.test, DNS:xn--n8j6ds53lwwkrqhv28a.xn--lve-6lad.web-platform.test, DNS:xn--n8j6ds53lwwkrqhv28a.xn--lve-6lad.not-web-platform.test, DNS:xn--lve-6lad.xn--n8j6ds53lwwkrqhv28a.not-web-platform.test, DNS:xn--n8j6ds53lwwkrqhv28a.xn--n8j6ds53lwwkrqhv28a.web-platform.test, DNS:xn--n8j6ds53lwwkrqhv28a.xn--n8j6ds53lwwkrqhv28a.not-web-platform.test
    Signature Algorithm: sha256WithRSAEncryption
         4e:80:f7:c8:9c:5d:f7:0a:ad:9d:46:63:f6:50:4b:80:f4:46:
         41:22:a2:15:ff:21:e3:dc:e1:64:c6:2f:be:31:4b:9c:5c:8b:
         d8:ee:cd:63:9f:6e:f5:e5:5d:0c:f7:ab:c2:57:cf:49:18:7b:
         9c:ba:1c:e8:0d:75:c0:bc:e8:a2:a4:63:c0:2b:e5:51:14:8b:
         31:16:8b:e1:4e:70:bf:90:72:de:19:fe:b4:8a:28:8f:4a:65:
         41:df:20:3a:d5:66:3a:2b:8a:70:1d:a6:98:ca:bf:02:79:18:
         ae:78:1b:6d:d0:83:8b:c5:4d:bc:81:ac:67:5b:fe:a5:97:86:
         ee:ef:8f:20:a2:f9:e1:4b:51:ed:22:3c:db:a5:4c:6e:15:0a:
         21:ec:47:48:9b:1a:0c:c7:00:6e:64:a9:0f:f2:f7:11:25:d0:
         7c:60:a5:ee:8a:ff:23:3c:74:b8:f5:13:73:ee:61:0b:5f:61:
         c9:6e:55:7d:d3:53:d3:01:9e:24:e1:ae:c8:01:f2:0a:63:85:
         fc:2e:8f:b6:95:8a:75:99:10:4c:cc:cd:7c:0e:2b:64:35:9d:
         82:52:9c:02:94:b8:d0:95:f8:60:a7:98:e0:34:44:67:4f:ec:
         31:9a:33:65:a2:3a:c0:60:cf:e0:79:db:57:e9:f7:36:fa:84:
         b7:dd:3f:3a
-----BEGIN CERTIFICATE-----
MIIMsjCCC5qgAwIBAgIDCb3fMA0GCSqGSIb3DQEBCwUAMB0xGzAZBgNVBAMMEndl
Yi1wbGF0Zm9ybS10ZXN0czAeFw0yMzEyMTIwMDUzNTdaFw0yNDEyMTEwMDUzNTda
MBwxGjAYBgNVBAMMEXdlYi1wbGF0Zm9ybS50ZXN0MIIBIjANBgkqhkiG9w0BAQEF
AAOCAQ8AMIIBCgKCAQEAtNJLHnMA/0c8di1BT9016rHYEZ3Y3S0/V8pY6mxvzde8
egCjKlBwEJGLcOrkVUdGX95Fwaho07gtc9YCSEGPmhC6VZs9D4QzhARtqJmRCc+e
KvmNBbqbdcJrGTZydu+ysi2Oi3VP7M20K/enKOA+qDCdTNJ46wd/WcwQunFsb34T
P2Vx2JGSvho7x5V4o209JTvUJkxkEHLvlSMkgfEAWbHIYIWAh+dPS/2RDC/Ku7g6
uYv8sKzeqr+420kTw2hOC/XIJcXKUdn7ewLCsYH0OcKELL2CAwySWqOPIRycWftg
uWCEsNtsS9q8w+ONOBKPKCVOVqy4Oc3yuig4MAojgwIDAQABo4IJ+jCCCfYwCQYD
VR0TBAIwADAdBgNVHQ4EFgQUfHWmKpMecefSSyfkHfo9/GPi04MwHwYDVR0jBBgw
FoAU0+3oS+dUBWCb9+dRrf0fo5w5HuowCwYDVR0PBAQDAgXgMBMGA1UdJQQMMAoG
CCsGAQUFBwMBMIIJhQYDVR0RBIIJfDCCCXiCEXdlYi1wbGF0Zm9ybS50ZXN0ghVu
b3Qtd2ViLXBsYXRmb3JtLnRlc3SCFXd3dy53ZWItcGxhdGZvcm0udGVzdIIWd3d3
MS53ZWItcGxhdGZvcm0udGVzdIIWd3d3Mi53ZWItcGxhdGZvcm0udGVzdIIZd3d3
Lnd3dy53ZWItcGxhdGZvcm0udGVzdIIZd3d3Lm5vdC13ZWItcGxhdGZvcm0udGVz
dIIad3d3Lnd3dzEud2ViLXBsYXRmb3JtLnRlc3SCGnd3dzEubm90LXdlYi1wbGF0
Zm9ybS50ZXN0ghp3d3cyLnd3dy53ZWItcGxhdGZvcm0udGVzdIIad3d3MS53d3cu
d2ViLXBsYXRmb3JtLnRlc3SCGnd3dy53d3cyLndlYi1wbGF0Zm9ybS50ZXN0ghp3
d3cyLm5vdC13ZWItcGxhdGZvcm0udGVzdIIbd3d3MS53d3cxLndlYi1wbGF0Zm9y
bS50ZXN0ght3d3cyLnd3dzEud2ViLXBsYXRmb3JtLnRlc3SCG3d3dzIud3d3Mi53
ZWItcGxhdGZvcm0udGVzdIIbd3d3MS53d3cyLndlYi1wbGF0Zm9ybS50ZXN0gh13
d3cud3d3Lm5vdC13ZWItcGxhdGZvcm0udGVzdIIed3d3MS53d3cubm90LXdlYi1w
bGF0Zm9ybS50ZXN0gh53d3cud3d3MS5ub3Qtd2ViLXBsYXRmb3JtLnRlc3SCHnhu
LS1sdmUtNmxhZC53ZWItcGxhdGZvcm0udGVzdIIed3d3Mi53d3cubm90LXdlYi1w
bGF0Zm9ybS50ZXN0gh53d3cud3d3Mi5ub3Qtd2ViLXBsYXRmb3JtLnRlc3SCH3d3
dzIud3d3MS5ub3Qtd2ViLXBsYXRmb3JtLnRlc3SCH3d3dzEud3d3Mi5ub3Qtd2Vi
LXBsYXRmb3JtLnRlc3SCH3d3dzEud3d3MS5ub3Qtd2ViLXBsYXRmb3JtLnRlc3SC
H3d3dzIud3d3Mi5ub3Qtd2ViLXBsYXRmb3JtLnRlc3SCInhuLS1sdmUtNmxhZC5u
b3Qtd2ViLXBsYXRmb3JtLnRlc3SCInhuLS1sdmUtNmxhZC53d3cud2ViLXBsYXRm
b3JtLnRlc3SCInd3dy54bi0tbHZlLTZsYWQud2ViLXBsYXRmb3JtLnRlc3SCI3hu
LS1sdmUtNmxhZC53d3cxLndlYi1wbGF0Zm9ybS50ZXN0giN4bi0tbHZlLTZsYWQu
d3d3Mi53ZWItcGxhdGZvcm0udGVzdIIjd3d3Mi54bi0tbHZlLTZsYWQud2ViLXBs
YXRmb3JtLnRlc3SCI3d3dzEueG4tLWx2ZS02bGFkLndlYi1wbGF0Zm9ybS50ZXN0
giZ4bi0tbHZlLTZsYWQud3d3Lm5vdC13ZWItcGxhdGZvcm0udGVzdIImd3d3Lnhu
LS1sdmUtNmxhZC5ub3Qtd2ViLXBsYXRmb3JtLnRlc3SCJ3d3dzIueG4tLWx2ZS02
bGFkLm5vdC13ZWItcGxhdGZvcm0udGVzdIInd3d3MS54bi0tbHZlLTZsYWQubm90
LXdlYi1wbGF0Zm9ybS50ZXN0gid4bi0tbHZlLTZsYWQud3d3MS5ub3Qtd2ViLXBs
YXRmb3JtLnRlc3SCJ3huLS1sdmUtNmxhZC53d3cyLm5vdC13ZWItcGxhdGZvcm0u
dGVzdIIpeG4tLW44ajZkczUzbHd3a3JxaHYyOGEud2ViLXBsYXRmb3JtLnRlc3SC
K3huLS1sdmUtNmxhZC54bi0tbHZlLTZsYWQud2ViLXBsYXRmb3JtLnRlc3SCLXhu
LS1uOGo2ZHM1M2x3d2tycWh2MjhhLm5vdC13ZWItcGxhdGZvcm0udGVzdIItd3d3
LnhuLS1uOGo2ZHM1M2x3d2tycWh2MjhhLndlYi1wbGF0Zm9ybS50ZXN0gi14bi0t
bjhqNmRzNTNsd3drcnFodjI4YS53d3cud2ViLXBsYXRmb3JtLnRlc3SCLnhuLS1u
OGo2ZHM1M2x3d2tycWh2MjhhLnd3dzEud2ViLXBsYXRmb3JtLnRlc3SCLnd3dzIu
eG4tLW44ajZkczUzbHd3a3JxaHYyOGEud2ViLXBsYXRmb3JtLnRlc3SCLnhuLS1u
OGo2ZHM1M2x3d2tycWh2MjhhLnd3dzIud2ViLXBsYXRmb3JtLnRlc3SCLnd3dzEu
eG4tLW44ajZkczUzbHd3a3JxaHYyOGEud2ViLXBsYXRmb3JtLnRlc3SCL3huLS1s
dmUtNmxhZC54bi0tbHZlLTZsYWQubm90LXdlYi1wbGF0Zm9ybS50ZXN0gjF3d3cu
eG4tLW44ajZkczUzbHd3a3JxaHYyOGEubm90LXdlYi1wbGF0Zm9ybS50ZXN0gjF4
bi0tbjhqNmRzNTNsd3drcnFodjI4YS53d3cubm90LXdlYi1wbGF0Zm9ybS50ZXN0
gjJ4bi0tbjhqNmRzNTNsd3drcnFodjI4YS53d3cyLm5vdC13ZWItcGxhdGZvcm0u
dGVzdIIyeG4tLW44ajZkczUzbHd3a3JxaHYyOGEud3d3MS5ub3Qtd2ViLXBsYXRm
b3JtLnRlc3SCMnd3dzIueG4tLW44ajZkczUzbHd3a3JxaHYyOGEubm90LXdlYi1w
bGF0Zm9ybS50ZXN0gjJ3d3cxLnhuLS1uOGo2ZHM1M2x3d2tycWh2MjhhLm5vdC13
ZWItcGxhdGZvcm0udGVzdII2eG4tLWx2ZS02bGFkLnhuLS1uOGo2ZHM1M2x3d2ty
cWh2MjhhLndlYi1wbGF0Zm9ybS50ZXN0gjZ4bi0tbjhqNmRzNTNsd3drcnFodjI4
YS54bi0tbHZlLTZsYWQud2ViLXBsYXRmb3JtLnRlc3SCOnhuLS1uOGo2ZHM1M2x3
d2tycWh2MjhhLnhuLS1sdmUtNmxhZC5ub3Qtd2ViLXBsYXRmb3JtLnRlc3SCOnhu
LS1sdmUtNmxhZC54bi0tbjhqNmRzNTNsd3drcnFodjI4YS5ub3Qtd2ViLXBsYXRm
b3JtLnRlc3SCQXhuLS1uOGo2ZHM1M2x3d2tycWh2MjhhLnhuLS1uOGo2ZHM1M2x3
d2tycWh2MjhhLndlYi1wbGF0Zm9ybS50ZXN0gkV4bi0tbjhqNmRzNTNsd3drcnFo
djI4YS54bi0tbjhqNmRzNTNsd3drcnFodjI4YS5ub3Qtd2ViLXBsYXRmb3JtLnRl
c3QwDQYJKoZIhvcNAQELBQADggEBAE6A98icXfcKrZ1GY/ZQS4D0RkEiohX/IePc
4WTGL74xS5xci9juzWOfbvXlXQz3q8JXz0kYe5y6HOgNdcC86KKkY8Ar5VEUizEW
i+FOcL+Qct4Z/rSKKI9KZUHfIDrVZjorinAdppjKvwJ5GK54G23Qg4vFTbyBrGdb
/qWXhu7vjyCi+eFLUe0iPNulTG4VCiHsR0ibGgzHAG5kqQ/y9xEl0Hxgpe6K/yM8
dLj1E3PuYQtfYcluVX3TU9MBniThrsgB8gpjhfwuj7aVinWZEEzMzXwOK2Q1nYJS
nAKUuNCV+GCnmOA0RGdP7DGaM2WiOsBgz+B521fp9zb6hLfdPzo=
-----END CERTIFICATE-----
